target datalayout = "e-m:e-p270:32:32-p271:32:32-p272:64:64-i64:64-i128:128-f80:128-n8:16:32:64-S128"
target triple = "x86_64-pc-linux-gnu"

; Function Attrs: mustprogress nounwind uwtable
define dso_local void @_ZN21cmGeneratedFileStreamD1Ev(ptr noundef nonnull align 8 dereferenceable(348) %0) unnamed_addr #5 align 2 {
  %2 = alloca ptr, align 8
  store ptr %0, ptr %2, align 8
  %3 = load ptr, ptr %2, align 8
  call void @_ZN21cmGeneratedFileStreamD2Ev(ptr noundef nonnull align 8 dereferenceable(348) %3, ptr noundef @_ZTT21cmGeneratedFileStream) #3
  %4 = getelementptr inbounds i8, ptr %3, i64 352
  call void @_ZNSt9basic_iosIcSt11char_traitsIcEED2Ev(ptr noundef nonnull align 8 dereferenceable(264) %4) #3
  ret void
}

; Function Attrs: mustprogress nounwind uwtable
define dso_local void @_ZN21cmGeneratedFileStreamD0Ev(ptr noundef nonnull align 8 dereferenceable(348) %0) unnamed_addr #5 align 2 {
  %2 = alloca ptr, align 8
  store ptr %0, ptr %2, align 8
  %3 = load ptr, ptr %2, align 8
  call void @_ZN21cmGeneratedFileStreamD1Ev(ptr noundef nonnull align 8 dereferenceable(348) %3) #3
  call void @_ZdlPv(ptr noundef %3) #12
  ret void
}

; Function Attrs: nounwind uwtable
define dso_local void @_ZTv0_n24_N21cmGeneratedFileStreamD0Ev(ptr noundef %0) unnamed_addr #10 align 2 {
  %2 = alloca ptr, align 8
  store ptr %0, ptr %2, align 8
  %3 = load ptr, ptr %2, align 8
  %4 = load ptr, ptr %3, align 8
  %5 = getelementptr inbounds i8, ptr %4, i64 -24
  %6 = load i64, ptr %5, align 8
  %7 = getelementptr inbounds i8, ptr %3, i64 %6
  tail call void @_ZN21cmGeneratedFileStreamD0Ev(ptr noundef nonnull align 8 dereferenceable(348) %7) #3
  ret void
}