; Function Attrs: nounwind uwtable
define dso_local void @_ZTv0_n24_N21cmGeneratedFileStreamD0Ev(ptr noundef %0) unnamed_addr #9 align 2 {
  %2 = load ptr, ptr %0, align 8
  %3 = getelementptr inbounds i8, ptr %2, i64 -24
  %4 = load i64, ptr %3, align 8
  %5 = getelementptr inbounds i8, ptr %0, i64 %4
  tail call void @_ZN21cmGeneratedFileStreamD2Ev(ptr noundef nonnull align 8 dereferenceable(348) %5, ptr noundef nonnull @_ZTT21cmGeneratedFileStream) #15
  %6 = getelementptr inbounds i8, ptr %5, i64 352
  tail call void @_ZNSt9basic_iosIcSt11char_traitsIcEED2Ev(ptr noundef nonnull align 8 dereferenceable(264) %6) #15
  tail call void @_ZdlPv(ptr noundef nonnull %5) #17
  ret void
}